target datalayout = "e-m:e-p270:32:32-p271:32:32-p272:64:64-i64:64-i128:128-f80:128-n8:16:32:64-S128"
target triple = "x86_64-pc-linux-gnu"

@.str = private unnamed_addr constant [33 x i8] c"../openssl/crypto/evp/evp_pkey.c\00", align 1
@.str.2 = private unnamed_addr constant [4 x i8] c"DER\00", align 1
@.str.3 = private unnamed_addr constant [15 x i8] c"PrivateKeyInfo\00", align 1

; Function Attrs: nounwind uwtable
define ptr @EVP_PKCS82PKEY_ex(ptr noundef %0, ptr noundef %1, ptr noundef %2) #0 {
  %4 = alloca ptr, align 8
  %5 = alloca ptr, align 8
  %6 = alloca ptr, align 8
  %7 = alloca ptr, align 8
  %8 = alloca ptr, align 8
  %9 = alloca ptr, align 8
  %10 = alloca ptr, align 8
  %11 = alloca i32, align 4
  %12 = alloca i32, align 4
  %13 = alloca i64, align 8
  %14 = alloca ptr, align 8
  %15 = alloca ptr, align 8
  %16 = alloca [50 x i8], align 16
  %17 = alloca i32, align 4
  store ptr %0, ptr %5, align 8, !tbaa !3
  store ptr %1, ptr %6, align 8, !tbaa !8
  store ptr %2, ptr %7, align 8, !tbaa !10
  call void @llvm.lifetime.start.p0(i64 8, ptr %8) #3
  store ptr null, ptr %8, align 8, !tbaa !12
  call void @llvm.lifetime.start.p0(i64 8, ptr %9) #3
  store ptr null, ptr %9, align 8, !tbaa !10
  call void @llvm.lifetime.start.p0(i64 8, ptr %10) #3
  store ptr null, ptr %10, align 8, !tbaa !10
  call void @llvm.lifetime.start.p0(i64 4, ptr %11) #3
  call void @llvm.lifetime.start.p0(i64 4, ptr %12) #3
  call void @llvm.lifetime.start.p0(i64 8, ptr %13) #3
  call void @llvm.lifetime.start.p0(i64 8, ptr %14) #3
  store ptr null, ptr %14, align 8, !tbaa !32
  call void @llvm.lifetime.start.p0(i64 8, ptr %15) #3
  store ptr null, ptr %15, align 8, !tbaa !14
  call void @llvm.lifetime.start.p0(i64 50, ptr %16) #3
  %18 = load ptr, ptr %5, align 8, !tbaa !3
  %19 = icmp eq ptr %18, null
  br i1 %19, label %29, label %20

20:                                               ; preds = %3
  %21 = load ptr, ptr %5, align 8, !tbaa !3
  %22 = call i32 @PKCS8_pkey_get0(ptr noundef %15, ptr noundef null, ptr noundef null, ptr noundef null, ptr noundef %21)
  %23 = icmp ne i32 %22, 0
  br i1 %23, label %24, label %29

24:                                               ; preds = %20
  %25 = getelementptr inbounds [50 x i8], ptr %16, i64 0, i64 0
  %26 = load ptr, ptr %15, align 8, !tbaa !14
  %27 = call i32 @OBJ_obj2txt(ptr noundef %25, i32 noundef 50, ptr noundef %26, i32 noundef 0)
  %28 = icmp ne i32 %27, 0
  br i1 %28, label %30, label %29

29:                                               ; preds = %24, %20, %3
  store ptr null, ptr %4, align 8
  store i32 1, ptr %17, align 4
  br label %77

30:                                               ; preds = %24
  %31 = load ptr, ptr %5, align 8, !tbaa !3
  %32 = call i32 @i2d_PKCS8_PRIV_KEY_INFO(ptr noundef %31, ptr noundef %10)
  store i32 %32, ptr %11, align 4, !tbaa !34
  %33 = icmp sle i32 %32, 0
  br i1 %33, label %37, label %34

34:                                               ; preds = %30
  %35 = load ptr, ptr %10, align 8, !tbaa !10
  %36 = icmp eq ptr %35, null
  br i1 %36, label %37, label %38

37:                                               ; preds = %34, %30
  store ptr null, ptr %4, align 8
  store i32 1, ptr %17, align 4
  br label %77

38:                                               ; preds = %34
  %39 = load ptr, ptr %10, align 8, !tbaa !10
  store ptr %39, ptr %9, align 8, !tbaa !10
  %40 = load i32, ptr %11, align 4, !tbaa !34
  %41 = sext i32 %40 to i64
  store i64 %41, ptr %13, align 8, !tbaa !35
  store i32 135, ptr %12, align 4, !tbaa !34
  %42 = getelementptr inbounds [50 x i8], ptr %16, i64 0, i64 0
  %43 = load i32, ptr %12, align 4, !tbaa !34
  %44 = load ptr, ptr %6, align 8, !tbaa !8
  %45 = load ptr, ptr %7, align 8, !tbaa !10
  %46 = call ptr @OSSL_DECODER_CTX_new_for_pkey(ptr noundef %8, ptr noundef @.str.2, ptr noundef @.str.3, ptr noundef %42, i32 noundef %43, ptr noundef %44, ptr noundef %45)
  store ptr %46, ptr %14, align 8, !tbaa !32
  %47 = load ptr, ptr %14, align 8, !tbaa !32
  %48 = icmp ne ptr %47, null
  br i1 %48, label %49, label %59

49:                                               ; preds = %38
  %50 = load ptr, ptr %14, align 8, !tbaa !32
  %51 = call i32 @OSSL_DECODER_CTX_get_num_decoders(ptr noundef %50)
  %52 = icmp eq i32 %51, 0
  br i1 %52, label %53, label %59

53:                                               ; preds = %49
  %54 = load ptr, ptr %14, align 8, !tbaa !32
  call void @OSSL_DECODER_CTX_free(ptr noundef %54)
  %55 = load i32, ptr %12, align 4, !tbaa !34
  %56 = load ptr, ptr %6, align 8, !tbaa !8
  %57 = load ptr, ptr %7, align 8, !tbaa !10
  %58 = call ptr @OSSL_DECODER_CTX_new_for_pkey(ptr noundef %8, ptr noundef @.str.2, ptr noundef @.str.3, ptr noundef null, i32 noundef %55, ptr noundef %56, ptr noundef %57)
  store ptr %58, ptr %14, align 8, !tbaa !32
  br label %59

59:                                               ; preds = %53, %49, %38
  %60 = load ptr, ptr %14, align 8, !tbaa !32
  %61 = icmp eq ptr %60, null
  br i1 %61, label %66, label %62

62:                                               ; preds = %59
  %63 = load ptr, ptr %14, align 8, !tbaa !32
  %64 = call i32 @OSSL_DECODER_from_data(ptr noundef %63, ptr noundef %9, ptr noundef %13)
  %65 = icmp ne i32 %64, 0
  br i1 %65, label %71, label %66

66:                                               ; preds = %62, %59
  %67 = load ptr, ptr %5, align 8, !tbaa !3
  %68 = load ptr, ptr %6, align 8, !tbaa !8
  %69 = load ptr, ptr %7, align 8, !tbaa !10
  %70 = call ptr @evp_pkcs82pkey_legacy(ptr noundef %67, ptr noundef %68, ptr noundef %69)
  store ptr %70, ptr %8, align 8, !tbaa !12
  br label %71

71:                                               ; preds = %66, %62
  %72 = load ptr, ptr %10, align 8, !tbaa !10
  %73 = load i32, ptr %11, align 4, !tbaa !34
  %74 = sext i32 %73 to i64
  call void @CRYPTO_clear_free(ptr noundef %72, i64 noundef %74, ptr noundef @.str, i32 noundef 112)
  %75 = load ptr, ptr %14, align 8, !tbaa !32
  call void @OSSL_DECODER_CTX_free(ptr noundef %75)
  %76 = load ptr, ptr %8, align 8, !tbaa !12
  store ptr %76, ptr %4, align 8
  store i32 1, ptr %17, align 4
  br label %77

77:                                               ; preds = %71, %37, %29
  call void @llvm.lifetime.end.p0(i64 50, ptr %16) #3
  call void @llvm.lifetime.end.p0(i64 8, ptr %15) #3
  call void @llvm.lifetime.end.p0(i64 8, ptr %14) #3
  call void @llvm.lifetime.end.p0(i64 8, ptr %13) #3
  call void @llvm.lifetime.end.p0(i64 4, ptr %12) #3
  call void @llvm.lifetime.end.p0(i64 4, ptr %11) #3
  call void @llvm.lifetime.end.p0(i64 8, ptr %10) #3
  call void @llvm.lifetime.end.p0(i64 8, ptr %9) #3
  call void @llvm.lifetime.end.p0(i64 8, ptr %8) #3
  %78 = load ptr, ptr %4, align 8
  ret ptr %78
}