; Function Attrs: nounwind uwtable
define ptr @EVP_PKCS82PKEY_ex(ptr noundef %0, ptr noundef %1, ptr noundef %2) local_unnamed_addr #0 {
  %4 = alloca ptr, align 8
  %5 = alloca ptr, align 8
  %6 = alloca ptr, align 8
  %7 = alloca i64, align 8
  %8 = alloca ptr, align 8
  %9 = alloca [50 x i8], align 16
  call void @llvm.lifetime.start.p0(i64 8, ptr nonnull %4) #3
  store ptr null, ptr %4, align 8, !tbaa !26
  call void @llvm.lifetime.start.p0(i64 8, ptr nonnull %5) #3
  call void @llvm.lifetime.start.p0(i64 8, ptr nonnull %6) #3
  store ptr null, ptr %6, align 8, !tbaa !28
  call void @llvm.lifetime.start.p0(i64 8, ptr nonnull %7) #3
  call void @llvm.lifetime.start.p0(i64 8, ptr nonnull %8) #3
  store ptr null, ptr %8, align 8, !tbaa !3
  call void @llvm.lifetime.start.p0(i64 50, ptr nonnull %9) #3
  %10 = icmp eq ptr %0, null
  br i1 %10, label %35, label %11

11:                                               ; preds = %3
  %12 = call i32 @PKCS8_pkey_get0(ptr noundef nonnull %8, ptr noundef null, ptr noundef null, ptr noundef null, ptr noundef nonnull %0) #3
  %.not = icmp eq i32 %12, 0
  br i1 %.not, label %35, label %13

13:                                               ; preds = %11
  %14 = load ptr, ptr %8, align 8, !tbaa !3
  %15 = call i32 @OBJ_obj2txt(ptr noundef nonnull %9, i32 noundef 50, ptr noundef %14, i32 noundef 0) #3
  %.not26 = icmp eq i32 %15, 0
  br i1 %.not26, label %35, label %16

16:                                               ; preds = %13
  %17 = call i32 @i2d_PKCS8_PRIV_KEY_INFO(ptr noundef nonnull %0, ptr noundef nonnull %6) #3
  %18 = icmp slt i32 %17, 1
  %19 = load ptr, ptr %6, align 8
  %20 = icmp eq ptr %19, null
  %or.cond = select i1 %18, i1 true, i1 %20
  br i1 %or.cond, label %35, label %21

21:                                               ; preds = %16
  store ptr %19, ptr %5, align 8, !tbaa !28
  %22 = zext nneg i32 %17 to i64
  store i64 %22, ptr %7, align 8, !tbaa !29
  %23 = call ptr @OSSL_DECODER_CTX_new_for_pkey(ptr noundef nonnull %4, ptr noundef nonnull @.str.2, ptr noundef nonnull @.str.3, ptr noundef nonnull %9, i32 noundef 135, ptr noundef %1, ptr noundef %2) #3
  %.not27 = icmp eq ptr %23, null
  br i1 %.not27, label %.thread, label %24

24:                                               ; preds = %21
  %25 = call i32 @OSSL_DECODER_CTX_get_num_decoders(ptr noundef nonnull %23) #3
  %26 = icmp eq i32 %25, 0
  br i1 %26, label %27, label %.thread32

27:                                               ; preds = %24
  call void @OSSL_DECODER_CTX_free(ptr noundef nonnull %23) #3
  %28 = call ptr @OSSL_DECODER_CTX_new_for_pkey(ptr noundef nonnull %4, ptr noundef nonnull @.str.2, ptr noundef nonnull @.str.3, ptr noundef null, i32 noundef 135, ptr noundef %1, ptr noundef %2) #3
  %29 = icmp eq ptr %28, null
  br i1 %29, label %.thread, label %.thread32

.thread32:                                        ; preds = %24, %27
  %.034 = phi ptr [ %28, %27 ], [ %23, %24 ]
  %30 = call i32 @OSSL_DECODER_from_data(ptr noundef nonnull %.034, ptr noundef nonnull %5, ptr noundef nonnull %7) #3
  %.not28 = icmp eq i32 %30, 0
  br i1 %.not28, label %.thread, label %32

.thread:                                          ; preds = %21, %.thread32, %27
  %.031 = phi ptr [ %.034, %.thread32 ], [ null, %27 ], [ null, %21 ]
  %31 = call ptr @evp_pkcs82pkey_legacy(ptr noundef nonnull %0, ptr noundef %1, ptr noundef %2)
  store ptr %31, ptr %4, align 8, !tbaa !26
  br label %32

32:                                               ; preds = %.thread, %.thread32
  %.030 = phi ptr [ %.031, %.thread ], [ %.034, %.thread32 ]
  %33 = load ptr, ptr %6, align 8, !tbaa !28
  call void @CRYPTO_clear_free(ptr noundef %33, i64 noundef %22, ptr noundef nonnull @.str, i32 noundef 112) #3
  call void @OSSL_DECODER_CTX_free(ptr noundef %.030) #3
  %34 = load ptr, ptr %4, align 8, !tbaa !26
  br label %35

35:                                               ; preds = %16, %3, %11, %13, %32
  %.021 = phi ptr [ %34, %32 ], [ null, %13 ], [ null, %11 ], [ null, %3 ], [ null, %16 ]
  call void @llvm.lifetime.end.p0(i64 50, ptr nonnull %9) #3
  call void @llvm.lifetime.end.p0(i64 8, ptr nonnull %8) #3
  call void @llvm.lifetime.end.p0(i64 8, ptr nonnull %7) #3
  call void @llvm.lifetime.end.p0(i64 8, ptr nonnull %6) #3
  call void @llvm.lifetime.end.p0(i64 8, ptr nonnull %5) #3
  call void @llvm.lifetime.end.p0(i64 8, ptr nonnull %4) #3
  ret ptr %.021
}